(dp1
S'hand_motor_joint'
p2
F1.1924539999999999
sS'head_pan_joint'
p3
F-5.8289309299297543e-06
sS'wrist_roll_joint'
p4
F0.00053372741375845578
sS'arm_lift_joint'
p5
F0.060000075107760495
sS'arm_flex_joint'
p6
F-1.8499295020736355
sS'wrist_flex_joint'
p7
F-1.2900053970493122
sS'head_tilt_joint'
p8
F-0.8800001390659693
sS'arm_roll_joint'
p9
F8.0380543021618678e-07
s.