(dp1
S'hand_motor_joint'
p2
F1.2231810000000001
sS'head_pan_joint'
p3
F-2.0828930929805978e-05
sS'wrist_roll_joint'
p4
F-0.010585272586241423
sS'arm_lift_joint'
p5
F0.01000454731727503
sS'arm_flex_joint'
p6
F-2.3024535020736354
sS'wrist_flex_joint'
p7
F0.37832660295068798
sS'head_tilt_joint'
p8
F-0.49999913906596949
sS'arm_roll_joint'
p9
F-2.4196194569725549e-05
s.