(dp1
S'hand_motor_joint'
p2
F0.87572700000000003
sS'head_pan_joint'
p3
F-5.8289309299297543e-06
sS'wrist_roll_joint'
p4
F1.4562827274137584
sS'arm_lift_joint'
p5
F0.19811759568910162
sS'arm_flex_joint'
p6
F-1.6666175020736356
sS'wrist_flex_joint'
p7
F0.5168986029506879
sS'head_tilt_joint'
p8
F-0.5000041390659693
sS'arm_roll_joint'
p9
F-1.5726971961945699
s.