(dp1
S'hand_motor_joint'
p2
F-0.53240900000000002
sS'head_pan_joint'
p3
F9.1710690699464692e-06
sS'wrist_roll_joint'
p4
F1.4532167274137584
sS'arm_lift_joint'
p5
F0.1868407283989921
sS'arm_flex_joint'
p6
F-1.6662345020736355
sS'wrist_flex_joint'
p7
F-0.51461839704931212
sS'head_tilt_joint'
p8
F-0.5000041390659693
sS'arm_roll_joint'
p9
F-1.57270219619457
s.